; ModuleID = '62/1498.c'
source_filename = "62/1498.c"
target datalayout = "e-m:e-p270:32:32-p271:32:32-p272:64:64-i64:64-f80:128-n8:16:32:64-S128"
target triple = "x86_64-pc-linux-gnu"

@.str = private unnamed_addr constant [3 x i8] c"%c\00", align 1

; Function Attrs: noinline nounwind uwtable
define dso_local void @main() #0 {
  %1 = alloca i8*, align 8
  %2 = alloca [1000 x i8], align 16
  %3 = getelementptr inbounds [1000 x i8], [1000 x i8]* %2, i64 0, i64 0
  store i8* %3, i8** %1, align 8
  %4 = load i8*, i8** %1, align 8
  %5 = call i32 (i8*, ...) bitcast (i32 (...)* @gets to i32 (i8*, ...)*)(i8* %4)
  br label %6

6:                                                ; preds = %39, %0
  %7 = load i8*, i8** %1, align 8
  %8 = load i8, i8* %7, align 1
  %9 = sext i8 %8 to i32
  %10 = icmp ne i32 %9, 0
  br i1 %10, label %11, label %42

11:                                               ; preds = %6
  %12 = load i8*, i8** %1, align 8
  %13 = load i8, i8* %12, align 1
  %14 = sext i8 %13 to i32
  %15 = icmp ne i32 %14, 32
  br i1 %15, label %16, label %21

16:                                               ; preds = %11
  %17 = load i8*, i8** %1, align 8
  %18 = load i8, i8* %17, align 1
  %19 = sext i8 %18 to i32
  %20 = call i32 (i8*, ...) @printf(i8* getelementptr inbounds ([3 x i8], [3 x i8]* @.str, i64 0, i64 0), i32 %19)
  br label %38

21:                                               ; preds = %11
  %22 = load i8*, i8** %1, align 8
  %23 = load i8, i8* %22, align 1
  %24 = sext i8 %23 to i32
  %25 = icmp eq i32 %24, 32
  br i1 %25, label %26, label %37

26:                                               ; preds = %21
  %27 = load i8*, i8** %1, align 8
  %28 = getelementptr inbounds i8, i8* %27, i64 1
  %29 = load i8, i8* %28, align 1
  %30 = sext i8 %29 to i32
  %31 = icmp ne i32 %30, 32
  br i1 %31, label %32, label %37

32:                                               ; preds = %26
  %33 = load i8*, i8** %1, align 8
  %34 = load i8, i8* %33, align 1
  %35 = sext i8 %34 to i32
  %36 = call i32 (i8*, ...) @printf(i8* getelementptr inbounds ([3 x i8], [3 x i8]* @.str, i64 0, i64 0), i32 %35)
  br label %37

37:                                               ; preds = %32, %26, %21
  br label %38

38:                                               ; preds = %37, %16
  br label %39

39:                                               ; preds = %38
  %40 = load i8*, i8** %1, align 8
  %41 = getelementptr inbounds i8, i8* %40, i32 1
  store i8* %41, i8** %1, align 8
  br label %6

42:                                               ; preds = %6
  ret void
}

declare dso_local i32 @gets(...) #1

declare dso_local i32 @printf(i8*, ...) #1


!llvm.module.flags = !{!0}
!llvm.ident = !{!1}

!0 = !{i32 1, !"wchar_size", i32 4}
!1 = !{!"clang version 10.0.0-4ubuntu1 "}
